target datalayout = "e-m:e-p270:32:32-p271:32:32-p272:64:64-i64:64-i128:128-f80:128-n8:16:32:64-S128"
target triple = "x86_64-unknown-linux-gnu"

%"struct.qe::max_level" = type { i32, i32 }

; Function Attrs: mustprogress nounwind uwtable
define linkonce_odr hidden void @_ZN2qe9max_levelC2Ev(ptr noundef nonnull align 4 dereferenceable(8) %this) unnamed_addr #5 comdat align 2 {
entry:
  %this.addr = alloca ptr, align 8
  store ptr %this, ptr %this.addr, align 8
  %this1 = load ptr, ptr %this.addr, align 8
  %m_ex = getelementptr inbounds %"struct.qe::max_level", ptr %this1, i32 0, i32 0
  store i32 -1, ptr %m_ex, align 4
  %m_fa = getelementptr inbounds %"struct.qe::max_level", ptr %this1, i32 0, i32 1
  store i32 -1, ptr %m_fa, align 4
  ret void
}

; Function Attrs: mustprogress uwtable
define hidden void @_ZN2qe8pred_abs14abstract_atomsEP4exprR10ref_vectorIS1_11ast_managerE(ptr noundef nonnull align 8 dereferenceable(216) %this, ptr noundef %fml, ptr noundef nonnull align 8 dereferenceable(16) %defs) #4 align 2 {
entry:
  %this.addr = alloca ptr, align 8
  %fml.addr = alloca ptr, align 8
  %defs.addr = alloca ptr, align 8
  %level = alloca %"struct.qe::max_level", align 4
  store ptr %this, ptr %this.addr, align 8
  store ptr %fml, ptr %fml.addr, align 8
  store ptr %defs, ptr %defs.addr, align 8
  %this1 = load ptr, ptr %this.addr, align 8
  call void @_ZN2qe9max_levelC2Ev(ptr noundef nonnull align 4 dereferenceable(8) %level)
  %0 = load ptr, ptr %fml.addr, align 8
  %1 = load ptr, ptr %defs.addr, align 8
  call void @_ZN2qe8pred_abs14abstract_atomsEP4exprRNS_9max_levelER10ref_vectorIS1_11ast_managerE(ptr noundef nonnull align 8 dereferenceable(216) %this1, ptr noundef %0, ptr noundef nonnull align 4 dereferenceable(8) %level, ptr noundef nonnull align 8 dereferenceable(16) %1)
  ret void
}