; Function Attrs: mustprogress uwtable
define hidden void @_ZN2qe8pred_abs14abstract_atomsEP4exprR10ref_vectorIS1_11ast_managerE(ptr noundef nonnull align 8 dereferenceable(216) %this, ptr noundef %fml, ptr noundef nonnull align 8 dereferenceable(16) %defs) local_unnamed_addr #3 align 2 {
entry:
  %level = alloca %"struct.qe::max_level", align 4
  store i32 -1, ptr %level, align 4
  %m_fa.i = getelementptr inbounds i8, ptr %level, i64 4
  store i32 -1, ptr %m_fa.i, align 4
  call void @_ZN2qe8pred_abs14abstract_atomsEP4exprRNS_9max_levelER10ref_vectorIS1_11ast_managerE(ptr noundef nonnull align 8 dereferenceable(216) %this, ptr noundef %fml, ptr noundef nonnull align 4 dereferenceable(8) %level, ptr noundef nonnull align 8 dereferenceable(16) %defs)
  ret void
}